; Function Attrs: nounwind uwtable
define noundef ptr @lv_anim_get(ptr noundef readnone %0, ptr noundef readnone %1) local_unnamed_addr #0 {
  %3 = tail call ptr @lv_ll_get_head(ptr noundef nonnull getelementptr inbounds nuw (i8, ptr @lv_global, i64 304)) #8
  %.not11 = icmp eq ptr %3, null
  br i1 %.not11, label %._crit_edge, label %.lr.ph

.lr.ph:                                           ; preds = %2
  %4 = icmp eq ptr %1, null
  br i1 %4, label %.lr.ph.split.us, label %.lr.ph.split

.lr.ph.split.us:                                  ; preds = %.lr.ph, %7
  %.012.us = phi ptr [ %8, %7 ], [ %3, %.lr.ph ]
  %5 = load ptr, ptr %.012.us, align 8, !tbaa !34
  %6 = icmp eq ptr %5, %0
  br i1 %6, label %._crit_edge, label %7

7:                                                ; preds = %.lr.ph.split.us
  %8 = tail call ptr @lv_ll_get_next(ptr noundef nonnull getelementptr inbounds nuw (i8, ptr @lv_global, i64 304), ptr noundef nonnull %.012.us) #8
  %.not.us = icmp eq ptr %8, null
  br i1 %.not.us, label %._crit_edge, label %.lr.ph.split.us, !llvm.loop !46

.lr.ph.split:                                     ; preds = %.lr.ph, %15
  %.012 = phi ptr [ %16, %15 ], [ %3, %.lr.ph ]
  %9 = load ptr, ptr %.012, align 8, !tbaa !34
  %10 = icmp eq ptr %9, %0
  br i1 %10, label %11, label %15

11:                                               ; preds = %.lr.ph.split
  %12 = getelementptr inbounds nuw i8, ptr %.012, i64 8
  %13 = load ptr, ptr %12, align 8, !tbaa !33
  %14 = icmp eq ptr %13, %1
  br i1 %14, label %._crit_edge, label %15

15:                                               ; preds = %.lr.ph.split, %11
  %16 = tail call ptr @lv_ll_get_next(ptr noundef nonnull getelementptr inbounds nuw (i8, ptr @lv_global, i64 304), ptr noundef nonnull %.012) #8
  %.not = icmp eq ptr %16, null
  br i1 %.not, label %._crit_edge, label %.lr.ph.split, !llvm.loop !46

._crit_edge:                                      ; preds = %11, %15, %.lr.ph.split.us, %7, %2
  %.0.lcssa = phi ptr [ null, %2 ], [ null, %7 ], [ %.012.us, %.lr.ph.split.us ], [ null, %15 ], [ %.012, %11 ]
  ret ptr %.0.lcssa
}